Certificate:
    Data:
        Version: 3 (0x2)
        Serial Number: 0 (0x0)
    Signature Algorithm: sha256WithRSAEncryption
        Issuer: C=JP, ST=Kanagawa, L=Yokohama, O=example, CN=test-ca.local
        Validity
            Not Before: Jan 10 06:09:24 2022 GMT
            Not After : Apr 14 06:09:24 2024 GMT
        Subject: C=JP, ST=example, L=example, O=example, CN=www.example.com
        Subject Public Key Info:
            Public Key Algorithm: rsaEncryption
                Public-Key: (2048 bit)
                Modulus:
                    00:a6:9b:1b:04:79:8d:ba:f4:d3:06:99:29:fd:86:
                    10:4b:1b:ec:66:5d:10:86:88:0f:97:ad:25:13:8d:
                    8d:10:57:8a:5d:ae:99:4e:83:cd:0f:b6:6e:85:42:
                    e2:a4:d2:aa:95:c9:28:c6:03:e9:29:db:7d:a8:e0:
                    2d:e9:8b:f5:96:10:76:1d:5b:b5:9d:46:86:40:4f:
                    51:e8:06:e4:c9:00:16:4c:db:1b:41:01:27:9a:58:
                    14:17:13:e1:b3:c2:08:24:b9:97:64:7b:ce:46:c4:
                    5b:24:62:e7:12:64:e3:42:69:ee:15:6d:0f:60:2a:
                    56:ad:d3:6e:46:b5:01:d0:5f:e1:b3:b7:17:f8:39:
                    b5:14:5b:f4:b7:e5:f1:56:d0:43:e6:e8:3b:68:b8:
                    e5:02:d2:5d:55:17:b2:8a:3e:76:66:38:42:a2:14:
                    1e:4e:52:a8:07:62:2e:11:00:1f:7f:03:ca:d3:49:
                    ab:17:89:c9:f0:b1:96:b0:11:7f:39:4d:ea:59:58:
                    1c:07:e1:9b:f1:92:e9:fb:5d:9c:02:e1:6f:42:05:
                    77:e1:45:0b:80:fc:f9:13:ce:50:d1:29:b4:2f:cb:
                    d6:cf:d7:5f:51:11:4d:a5:9a:44:ee:82:fb:d6:05:
                    32:4e:d4:94:cf:3c:ec:48:4b:55:80:9f:5a:32:e3:
                    0c:d3
                Exponent: 65537 (0x10001)
        X509v3 extensions:
            X509v3 Subject Alternative Name: 
                DNS:www.example.com
    Signature Algorithm: sha256WithRSAEncryption
         c6:4b:91:db:50:6e:95:74:fe:28:f9:92:e1:8a:4e:65:05:6e:
         be:7c:82:bc:04:92:38:69:79:e0:34:70:09:65:24:76:6f:9b:
         77:b7:e5:a7:7b:b5:a9:1b:6c:72:66:d3:f2:d3:77:2d:a8:c6:
         e4:58:3d:61:c5:a0:bf:ca:f5:b6:20:56:27:46:d5:05:7e:ab:
         81:1a:bc:ad:26:28:e8:8f:72:44:dc:ec:fb:e5:36:cc:df:4b:
         a8:a2:a3:ab:59:5a:12:15:ff:0c:d6:ae:98:26:02:3e:4e:8c:
         2e:44:0a:be:25:95:dd:07:f2:9b:c6:d9:57:f0:11:e1:ca:0b:
         ef:ee:55:98:23:66:9a:dd:3f:e8:9a:fb:78:29:d2:82:b4:68:
         c0:88:65:23:6f:c7:97:d9:f5:76:77:10:18:39:b5:3f:6c:33:
         72:88:86:dc:54:b9:37:b3:f0:fc:c3:6b:72:64:9e:bb:63:03:
         04:b4:4e:ba:71:22:df:33:de:f4:72:31:ae:c2:ba:34:e5:35:
         88:40:c6:29:84:cc:53:2a:ff:dd:57:ef:65:a1:d1:db:ed:68:
         99:bb:eb:a7:c1:d0:eb:4c:e4:eb:e4:57:bb:93:f3:17:8b:ea:
         d5:63:52:11:bc:56:aa:3e:55:2d:9f:7b:ac:45:61:27:02:7f:
         9d:c7:b1:32
-----BEGIN CERTIFICATE-----
MIIDUzCCAjugAwIBAgIBADANBgkqhkiG9w0BAQsFADBdMQswCQYDVQQGEwJKUDER
MA8GA1UECAwIS2FuYWdhd2ExETAPBgNVBAcMCFlva29oYW1hMRAwDgYDVQQKDAdl
eGFtcGxlMRYwFAYDVQQDDA10ZXN0LWNhLmxvY2FsMB4XDTIyMDExMDA2MDkyNFoX
DTI0MDQxNDA2MDkyNFowXTELMAkGA1UEBhMCSlAxEDAOBgNVBAgMB2V4YW1wbGUx
EDAOBgNVBAcMB2V4YW1wbGUxEDAOBgNVBAoMB2V4YW1wbGUxGDAWBgNVBAMMD3d3
dy5leGFtcGxlLmNvbTCCASIwDQYJKoZIhvcNAQEBBQADggEPADCCAQoCggEBAKab
GwR5jbr00waZKf2GEEsb7GZdEIaID5etJRONjRBXil2umU6DzQ+2boVC4qTSqpXJ
KMYD6SnbfajgLemL9ZYQdh1btZ1GhkBPUegG5MkAFkzbG0EBJ5pYFBcT4bPCCCS5
l2R7zkbEWyRi5xJk40Jp7hVtD2AqVq3Tbka1AdBf4bO3F/g5tRRb9Lfl8VbQQ+bo
O2i45QLSXVUXsoo+dmY4QqIUHk5SqAdiLhEAH38DytNJqxeJyfCxlrARfzlN6llY
HAfhm/GS6ftdnALhb0IFd+FFC4D8+RPOUNEptC/L1s/XX1ERTaWaRO6C+9YFMk7U
lM887EhLVYCfWjLjDNMCAwEAAaMeMBwwGgYDVR0RBBMwEYIPd3d3LmV4YW1wbGUu
Y29tMA0GCSqGSIb3DQEBCwUAA4IBAQDGS5HbUG6VdP4o+ZLhik5lBW6+fIK8BJI4
aXngNHAJZSR2b5t3t+Wne7WpG2xyZtPy03ctqMbkWD1hxaC/yvW2IFYnRtUFfquB
GrytJijoj3JE3Oz75TbM30uooqOrWVoSFf8M1q6YJgI+TowuRAq+JZXdB/KbxtlX
8BHhygvv7lWYI2aa3T/omvt4KdKCtGjAiGUjb8eX2fV2dxAYObU/bDNyiIbcVLk3
s/D8w2tyZJ67YwMEtE66cSLfM970cjGuwro05TWIQMYphMxTKv/dV+9lodHb7WiZ
u+unwdDrTOTr5Fe7k/MXi+rVY1IRvFaqPlUtn3usRWEnAn+dx7Ey
-----END CERTIFICATE-----
